target datalayout = "e-m:e-p270:32:32-p271:32:32-p272:64:64-i64:64-i128:128-f80:128-n8:16:32:64-S128"
target triple = "x86_64-pc-linux-gnu"

%struct.sq_queue_s = type { ptr, ptr }
%struct.mutex_s = type { %struct.sem_s, i32 }
%struct.sem_s = type { i16, i8, %struct.dq_queue_s, ptr }
%struct.dq_queue_s = type { ptr, ptr }
%struct.rmutex_s = type { %struct.mutex_s, i32 }
%struct.mm_map_s = type { %struct.sq_queue_s, i64, %struct.rmutex_s }
%struct.sq_entry_s = type { ptr }

; Function Attrs: nounwind uwtable
define i32 @mm_map_remove(ptr noundef %0, ptr noundef %1) #0 {
  %3 = alloca i32, align 4
  %4 = alloca ptr, align 8
  %5 = alloca ptr, align 8
  %6 = alloca ptr, align 8
  %7 = alloca ptr, align 8
  %8 = alloca i32, align 4
  store ptr %0, ptr %4, align 8
  store ptr %1, ptr %5, align 8
  store ptr null, ptr %7, align 8
  %9 = load ptr, ptr %4, align 8
  %10 = icmp ne ptr %9, null
  br i1 %10, label %11, label %14

11:                                               ; preds = %2
  %12 = load ptr, ptr %5, align 8
  %13 = icmp ne ptr %12, null
  br i1 %13, label %15, label %14

14:                                               ; preds = %11, %2
  store i32 0, ptr %3, align 4
  br label %78

15:                                               ; preds = %11
  %16 = load ptr, ptr %4, align 8
  %17 = getelementptr inbounds %struct.mm_map_s, ptr %16, i32 0, i32 2
  %18 = call i32 @nxrmutex_lock(ptr noundef %17)
  store i32 %18, ptr %8, align 4
  %19 = load i32, ptr %8, align 4
  %20 = icmp slt i32 %19, 0
  br i1 %20, label %21, label %23

21:                                               ; preds = %15
  %22 = load i32, ptr %8, align 4
  store i32 %22, ptr %3, align 4
  br label %78

23:                                               ; preds = %15
  %24 = load ptr, ptr %4, align 8
  %25 = getelementptr inbounds %struct.mm_map_s, ptr %24, i32 0, i32 0
  %26 = getelementptr inbounds %struct.sq_queue_s, ptr %25, i32 0, i32 0
  %27 = load ptr, ptr %26, align 8
  store ptr %27, ptr %6, align 8
  %28 = load ptr, ptr %6, align 8
  %29 = icmp ne ptr %28, null
  br i1 %29, label %34, label %30

30:                                               ; preds = %23
  %31 = load ptr, ptr %4, align 8
  %32 = getelementptr inbounds %struct.mm_map_s, ptr %31, i32 0, i32 2
  %33 = call i32 @nxrmutex_unlock(ptr noundef %32)
  store i32 -2, ptr %3, align 4
  br label %78

34:                                               ; preds = %23
  %35 = load ptr, ptr %5, align 8
  %36 = load ptr, ptr %6, align 8
  %37 = icmp eq ptr %35, %36
  br i1 %37, label %38, label %47

38:                                               ; preds = %34
  %39 = load ptr, ptr %4, align 8
  %40 = getelementptr inbounds %struct.mm_map_s, ptr %39, i32 0, i32 0
  %41 = call ptr @sq_remfirst(ptr noundef %40)
  %42 = load ptr, ptr %4, align 8
  %43 = getelementptr inbounds %struct.mm_map_s, ptr %42, i32 0, i32 1
  %44 = load i64, ptr %43, align 8
  %45 = add i64 %44, -1
  store i64 %45, ptr %43, align 8
  %46 = load ptr, ptr %6, align 8
  store ptr %46, ptr %7, align 8
  br label %69

47:                                               ; preds = %34
  br label %48

48:                                               ; preds = %66, %47
  %49 = load ptr, ptr %6, align 8
  %50 = getelementptr inbounds %struct.sq_entry_s, ptr %49, i32 0, i32 0
  %51 = load ptr, ptr %50, align 8
  store ptr %51, ptr %7, align 8
  %52 = icmp ne ptr %51, null
  br i1 %52, label %53, label %68

53:                                               ; preds = %48
  %54 = load ptr, ptr %5, align 8
  %55 = load ptr, ptr %7, align 8
  %56 = icmp eq ptr %54, %55
  br i1 %56, label %57, label %66

57:                                               ; preds = %53
  %58 = load ptr, ptr %6, align 8
  %59 = load ptr, ptr %4, align 8
  %60 = getelementptr inbounds %struct.mm_map_s, ptr %59, i32 0, i32 0
  %61 = call ptr @sq_remafter(ptr noundef %58, ptr noundef %60)
  %62 = load ptr, ptr %4, align 8
  %63 = getelementptr inbounds %struct.mm_map_s, ptr %62, i32 0, i32 1
  %64 = load i64, ptr %63, align 8
  %65 = add i64 %64, -1
  store i64 %65, ptr %63, align 8
  br label %68

66:                                               ; preds = %53
  %67 = load ptr, ptr %7, align 8
  store ptr %67, ptr %6, align 8
  br label %48, !llvm.loop !9

68:                                               ; preds = %57, %48
  br label %69

69:                                               ; preds = %68, %38
  %70 = load ptr, ptr %4, align 8
  %71 = getelementptr inbounds %struct.mm_map_s, ptr %70, i32 0, i32 2
  %72 = call i32 @nxrmutex_unlock(ptr noundef %71)
  %73 = load ptr, ptr %7, align 8
  %74 = icmp ne ptr %73, null
  br i1 %74, label %75, label %77

75:                                               ; preds = %69
  %76 = load ptr, ptr %7, align 8
  call void @free(ptr noundef %76)
  store i32 0, ptr %3, align 4
  br label %78

77:                                               ; preds = %69
  store i32 -2, ptr %3, align 4
  br label %78

78:                                               ; preds = %77, %75, %30, %21, %14
  %79 = load i32, ptr %3, align 4
  ret i32 %79
}