; Function Attrs: nounwind uwtable
define range(i32 -2147483648, 1) i32 @mm_map_remove(ptr noundef %0, ptr noundef readnone %1) local_unnamed_addr #0 {
  %3 = icmp ne ptr %0, null
  %4 = icmp ne ptr %1, null
  %or.cond = and i1 %3, %4
  br i1 %or.cond, label %5, label %29

5:                                                ; preds = %2
  %6 = getelementptr inbounds nuw i8, ptr %0, i64 24
  %7 = tail call i32 @nxrmutex_lock(ptr noundef nonnull %6) #6
  %8 = icmp slt i32 %7, 0
  br i1 %8, label %29, label %9

9:                                                ; preds = %5
  %10 = load ptr, ptr %0, align 8
  %.not = icmp eq ptr %10, null
  br i1 %.not, label %11, label %13

11:                                               ; preds = %9
  %12 = tail call i32 @nxrmutex_unlock(ptr noundef nonnull %6) #6
  br label %29

13:                                               ; preds = %9
  %14 = icmp eq ptr %1, %10
  br i1 %14, label %15, label %.preheader

15:                                               ; preds = %13
  %16 = tail call ptr @sq_remfirst(ptr noundef nonnull %0) #6
  br label %24

.preheader:                                       ; preds = %13, %18
  %.025 = phi ptr [ %17, %18 ], [ %10, %13 ]
  %17 = load ptr, ptr %.025, align 8
  %.not31 = icmp eq ptr %17, null
  br i1 %.not31, label %22, label %18

18:                                               ; preds = %.preheader
  %19 = icmp eq ptr %1, %17
  br i1 %19, label %20, label %.preheader, !llvm.loop !9

20:                                               ; preds = %18
  %21 = tail call ptr @sq_remafter(ptr noundef nonnull %.025, ptr noundef nonnull %0) #6
  br label %24

22:                                               ; preds = %.preheader
  %23 = tail call i32 @nxrmutex_unlock(ptr noundef nonnull %6) #6
  br label %29

24:                                               ; preds = %15, %20
  %.024.ph = phi ptr [ %17, %20 ], [ %10, %15 ]
  %25 = getelementptr inbounds nuw i8, ptr %0, i64 16
  %26 = load i64, ptr %25, align 8
  %27 = add i64 %26, -1
  store i64 %27, ptr %25, align 8
  %28 = tail call i32 @nxrmutex_unlock(ptr noundef nonnull %6) #6
  tail call void @free(ptr noundef nonnull %.024.ph)
  br label %29

29:                                               ; preds = %22, %5, %2, %24, %11
  %.0 = phi i32 [ 0, %24 ], [ -2, %11 ], [ 0, %2 ], [ %7, %5 ], [ -2, %22 ]
  ret i32 %.0
}